target datalayout = "e-m:e-p270:32:32-p271:32:32-p272:64:64-i64:64-i128:128-f80:128-n8:16:32:64-S128"
target triple = "x86_64-pc-linux-gnu"

%"class.absl::lts_20240722::log_internal::Voidify" = type { i8 }
%"class.absl::lts_20240722::log_internal::LogMessage" = type { %"class.absl::lts_20240722::base_internal::ErrnoSaver", %"class.std::unique_ptr" }
%"class.absl::lts_20240722::base_internal::ErrnoSaver" = type { i32 }
%"class.std::unique_ptr" = type { %"struct.std::__uniq_ptr_data" }
%"struct.std::__uniq_ptr_data" = type { %"class.std::__uniq_ptr_impl" }
%"class.std::__uniq_ptr_impl" = type { %"class.std::tuple" }
%"class.std::tuple" = type { %"struct.std::_Tuple_impl" }
%"struct.std::_Tuple_impl" = type { %"struct.std::_Head_base.15" }
%"struct.std::_Head_base.15" = type { ptr }
%"class.std::basic_string_view" = type { i64, ptr }
%"class.absl::lts_20240722::log_internal::LogMessageFatal" = type { %"class.absl::lts_20240722::log_internal::LogMessage" }

@.str.1 = private unnamed_addr constant [139 x i8] c"generated/home/dtcxzyw/WorkSpace/Projects/compilers/llvm-opt-benchmark/bench/grpc/grpc/src/core/lib/security/credentials/jwt/json_token.cc\00", align 1
@.str.24 = private unnamed_addr constant [18 x i8] c"current >= result\00", align 1
@.str.25 = private unnamed_addr constant [44 x i8] c"(uintptr_t)(current - result) == result_len\00", align 1

; Function Attrs: noinline noreturn nounwind uwtable
define linkonce_odr hidden void @__clang_call_terminate(ptr noundef %0) #17 comdat {
  %2 = call ptr @__cxa_begin_catch(ptr %0) #3
  call void @_ZSt9terminatev() #27
  unreachable
}

; Function Attrs: mustprogress nounwind uwtable
define linkonce_odr noundef i64 @_ZNSt11char_traitsIcE6lengthEPKc(ptr noundef %0) #4 comdat align 2 {
  %2 = alloca ptr, align 8
  store ptr %0, ptr %2, align 8, !tbaa !24
  %3 = load ptr, ptr %2, align 8, !tbaa !24
  %4 = call i64 @strlen(ptr noundef %3) #3
  ret i64 %4
}

; Function Attrs: mustprogress nounwind uwtable
define linkonce_odr void @_ZNKO4absl12lts_2024072212log_internal7VoidifyaaINS1_10LogMessageEEEvRKT_(ptr noundef nonnull align 1 dereferenceable(1) %0, ptr noundef nonnull align 8 dereferenceable(16) %1) #4 comdat align 2 {
  %3 = alloca ptr, align 8
  %4 = alloca ptr, align 8
  store ptr %0, ptr %3, align 8, !tbaa !28
  store ptr %1, ptr %4, align 8, !tbaa !30
  ret void
}

; Function Attrs: mustprogress nounwind uwtable
define linkonce_odr noundef nonnull align 8 dereferenceable(16) ptr @_ZN4absl12lts_2024072212log_internal10LogMessage14InternalStreamEv(ptr noundef nonnull align 8 dereferenceable(16) %0) #4 comdat align 2 {
  %2 = alloca ptr, align 8
  store ptr %0, ptr %2, align 8, !tbaa !30
  %3 = load ptr, ptr %2, align 8
  ret ptr %3
}

; Function Attrs: mustprogress nounwind uwtable
define linkonce_odr void @_ZNSt17basic_string_viewIcSt11char_traitsIcEEC2EPKc(ptr noundef nonnull align 8 dereferenceable(16) %0, ptr noundef nonnull %1) unnamed_addr #4 comdat align 2 personality ptr @__gxx_personality_v0 {
  %3 = alloca ptr, align 8
  %4 = alloca ptr, align 8
  store ptr %0, ptr %3, align 8, !tbaa !37
  store ptr %1, ptr %4, align 8, !tbaa !24
  %5 = load ptr, ptr %3, align 8
  %6 = getelementptr inbounds nuw %"class.std::basic_string_view", ptr %5, i32 0, i32 0
  %7 = load ptr, ptr %4, align 8, !tbaa !24
  %8 = invoke noundef i64 @_ZNSt11char_traitsIcE6lengthEPKc(ptr noundef %7)
          to label %9 unwind label %12

9:                                                ; preds = %2
  store i64 %8, ptr %6, align 8, !tbaa !39
  %10 = getelementptr inbounds nuw %"class.std::basic_string_view", ptr %5, i32 0, i32 1
  %11 = load ptr, ptr %4, align 8, !tbaa !24
  store ptr %11, ptr %10, align 8, !tbaa !41
  ret void

12:                                               ; preds = %2
  %13 = landingpad { ptr, i32 }
          catch ptr null
  %14 = extractvalue { ptr, i32 } %13, 0
  call void @__clang_call_terminate(ptr %14) #27
  unreachable
}

; Function Attrs: mustprogress uwtable
define internal noundef ptr @_ZL27dot_concat_and_free_stringsPcS_(ptr noundef %0, ptr noundef %1) #6 personality ptr @__gxx_personality_v0 {
  %3 = alloca ptr, align 8
  %4 = alloca ptr, align 8
  %5 = alloca i64, align 8
  %6 = alloca i64, align 8
  %7 = alloca i64, align 8
  %8 = alloca ptr, align 8
  %9 = alloca ptr, align 8
  %10 = alloca %"class.absl::lts_20240722::log_internal::Voidify", align 1
  %11 = alloca %"class.absl::lts_20240722::log_internal::LogMessageFatal", align 8
  %12 = alloca i1, align 1
  %13 = alloca %"class.std::basic_string_view", align 8
  %14 = alloca i1, align 1
  %15 = alloca ptr, align 8
  %16 = alloca i32, align 4
  %17 = alloca %"class.absl::lts_20240722::log_internal::Voidify", align 1
  %18 = alloca %"class.absl::lts_20240722::log_internal::LogMessageFatal", align 8
  %19 = alloca i1, align 1
  %20 = alloca %"class.std::basic_string_view", align 8
  %21 = alloca i1, align 1
  store ptr %0, ptr %3, align 8, !tbaa !24
  store ptr %1, ptr %4, align 8, !tbaa !24
  call void @llvm.lifetime.start.p0(i64 8, ptr %5) #3
  %22 = load ptr, ptr %3, align 8, !tbaa !24
  %23 = call i64 @strlen(ptr noundef %22) #24
  store i64 %23, ptr %5, align 8, !tbaa !55
  call void @llvm.lifetime.start.p0(i64 8, ptr %6) #3
  %24 = load ptr, ptr %4, align 8, !tbaa !24
  %25 = call i64 @strlen(ptr noundef %24) #24
  store i64 %25, ptr %6, align 8, !tbaa !55
  call void @llvm.lifetime.start.p0(i64 8, ptr %7) #3
  %26 = load i64, ptr %5, align 8, !tbaa !55
  %27 = add i64 %26, 1
  %28 = load i64, ptr %6, align 8, !tbaa !55
  %29 = add i64 %27, %28
  store i64 %29, ptr %7, align 8, !tbaa !55
  call void @llvm.lifetime.start.p0(i64 8, ptr %8) #3
  %30 = load i64, ptr %7, align 8, !tbaa !55
  %31 = add i64 %30, 1
  %32 = call ptr @gpr_malloc(i64 noundef %31)
  store ptr %32, ptr %8, align 8, !tbaa !24
  call void @llvm.lifetime.start.p0(i64 8, ptr %9) #3
  %33 = load ptr, ptr %8, align 8, !tbaa !24
  store ptr %33, ptr %9, align 8, !tbaa !24
  %34 = load ptr, ptr %9, align 8, !tbaa !24
  %35 = load ptr, ptr %3, align 8, !tbaa !24
  %36 = load i64, ptr %5, align 8, !tbaa !55
  call void @llvm.memcpy.p0.p0.i64(ptr align 1 %34, ptr align 1 %35, i64 %36, i1 false)
  %37 = load i64, ptr %5, align 8, !tbaa !55
  %38 = load ptr, ptr %9, align 8, !tbaa !24
  %39 = getelementptr inbounds nuw i8, ptr %38, i64 %37
  store ptr %39, ptr %9, align 8, !tbaa !24
  %40 = load ptr, ptr %9, align 8, !tbaa !24
  %41 = getelementptr inbounds nuw i8, ptr %40, i32 1
  store ptr %41, ptr %9, align 8, !tbaa !24
  store i8 46, ptr %40, align 1, !tbaa !61
  %42 = load ptr, ptr %9, align 8, !tbaa !24
  %43 = load ptr, ptr %4, align 8, !tbaa !24
  %44 = load i64, ptr %6, align 8, !tbaa !55
  call void @llvm.memcpy.p0.p0.i64(ptr align 1 %42, ptr align 1 %43, i64 %44, i1 false)
  %45 = load i64, ptr %6, align 8, !tbaa !55
  %46 = load ptr, ptr %9, align 8, !tbaa !24
  %47 = getelementptr inbounds nuw i8, ptr %46, i64 %45
  store ptr %47, ptr %9, align 8, !tbaa !24
  %48 = load ptr, ptr %9, align 8, !tbaa !24
  %49 = load ptr, ptr %8, align 8, !tbaa !24
  %50 = icmp uge ptr %48, %49
  %51 = xor i1 %50, true
  %52 = zext i1 %51 to i64
  %53 = call i64 @llvm.expect.i64(i64 %52, i64 0)
  %54 = icmp ne i64 %53, 0
  call void @llvm.lifetime.start.p0(i64 1, ptr %10) #3
  store i1 false, ptr %12, align 1
  store i1 false, ptr %14, align 1
  br i1 %54, label %56, label %55

55:                                               ; preds = %2
  br label %63

56:                                               ; preds = %2
  call void @llvm.lifetime.start.p0(i64 16, ptr %11) #3
  store i1 true, ptr %12, align 1
  call void @_ZNSt17basic_string_viewIcSt11char_traitsIcEEC2EPKc(ptr noundef nonnull align 8 dereferenceable(16) %13, ptr noundef @.str.24) #3
  %57 = getelementptr inbounds nuw { i64, ptr }, ptr %13, i32 0, i32 0
  %58 = load i64, ptr %57, align 8
  %59 = getelementptr inbounds nuw { i64, ptr }, ptr %13, i32 0, i32 1
  %60 = load ptr, ptr %59, align 8
  call void @_ZN4absl12lts_2024072212log_internal15LogMessageFatalC1EPKciSt17basic_string_viewIcSt11char_traitsIcEE(ptr noundef nonnull align 8 dereferenceable(16) %11, ptr noundef @.str.1, i32 noundef 224, i64 %58, ptr %60) #25
  store i1 true, ptr %14, align 1
  %61 = call noundef nonnull align 8 dereferenceable(16) ptr @_ZN4absl12lts_2024072212log_internal10LogMessage14InternalStreamEv(ptr noundef nonnull align 8 dereferenceable(16) %11)
  invoke void @_ZNKO4absl12lts_2024072212log_internal7VoidifyaaINS1_10LogMessageEEEvRKT_(ptr noundef nonnull align 1 dereferenceable(1) %10, ptr noundef nonnull align 8 dereferenceable(16) %61)
          to label %62 unwind label %66

62:                                               ; preds = %56
  br label %63

63:                                               ; preds = %62, %55
  %64 = load i1, ptr %14, align 1
  br i1 %64, label %65, label %72

65:                                               ; preds = %63
  call void @_ZN4absl12lts_2024072212log_internal15LogMessageFatalD1Ev(ptr noundef nonnull align 8 dereferenceable(16) %11) #27
  unreachable

66:                                               ; preds = %56
  %67 = landingpad { ptr, i32 }
          cleanup
  %68 = extractvalue { ptr, i32 } %67, 0
  store ptr %68, ptr %15, align 8
  %69 = extractvalue { ptr, i32 } %67, 1
  store i32 %69, ptr %16, align 4
  %70 = load i1, ptr %14, align 1
  br i1 %70, label %98, label %100

71:                                               ; No predecessors!
  br label %72

72:                                               ; preds = %71, %63
  %73 = load i1, ptr %12, align 1
  br i1 %73, label %74, label %75

74:                                               ; preds = %72
  call void @llvm.lifetime.end.p0(i64 16, ptr %11) #3
  br label %75

75:                                               ; preds = %74, %72
  call void @llvm.lifetime.end.p0(i64 1, ptr %10) #3
  %76 = load ptr, ptr %9, align 8, !tbaa !24
  %77 = load ptr, ptr %8, align 8, !tbaa !24
  %78 = ptrtoint ptr %76 to i64
  %79 = ptrtoint ptr %77 to i64
  %80 = sub i64 %78, %79
  %81 = load i64, ptr %7, align 8, !tbaa !55
  %82 = icmp eq i64 %80, %81
  %83 = xor i1 %82, true
  %84 = zext i1 %83 to i64
  %85 = call i64 @llvm.expect.i64(i64 %84, i64 0)
  %86 = icmp ne i64 %85, 0
  call void @llvm.lifetime.start.p0(i64 1, ptr %17) #3
  store i1 false, ptr %19, align 1
  store i1 false, ptr %21, align 1
  br i1 %86, label %88, label %87

87:                                               ; preds = %75
  br label %95

88:                                               ; preds = %75
  call void @llvm.lifetime.start.p0(i64 16, ptr %18) #3
  store i1 true, ptr %19, align 1
  call void @_ZNSt17basic_string_viewIcSt11char_traitsIcEEC2EPKc(ptr noundef nonnull align 8 dereferenceable(16) %20, ptr noundef @.str.25) #3
  %89 = getelementptr inbounds nuw { i64, ptr }, ptr %20, i32 0, i32 0
  %90 = load i64, ptr %89, align 8
  %91 = getelementptr inbounds nuw { i64, ptr }, ptr %20, i32 0, i32 1
  %92 = load ptr, ptr %91, align 8
  call void @_ZN4absl12lts_2024072212log_internal15LogMessageFatalC1EPKciSt17basic_string_viewIcSt11char_traitsIcEE(ptr noundef nonnull align 8 dereferenceable(16) %18, ptr noundef @.str.1, i32 noundef 225, i64 %90, ptr %92) #25
  store i1 true, ptr %21, align 1
  %93 = call noundef nonnull align 8 dereferenceable(16) ptr @_ZN4absl12lts_2024072212log_internal10LogMessage14InternalStreamEv(ptr noundef nonnull align 8 dereferenceable(16) %18)
  invoke void @_ZNKO4absl12lts_2024072212log_internal7VoidifyaaINS1_10LogMessageEEEvRKT_(ptr noundef nonnull align 1 dereferenceable(1) %17, ptr noundef nonnull align 8 dereferenceable(16) %93)
          to label %94 unwind label %104

94:                                               ; preds = %88
  br label %95

95:                                               ; preds = %94, %87
  %96 = load i1, ptr %21, align 1
  br i1 %96, label %97, label %110

97:                                               ; preds = %95
  call void @_ZN4absl12lts_2024072212log_internal15LogMessageFatalD1Ev(ptr noundef nonnull align 8 dereferenceable(16) %18) #27
  unreachable

98:                                               ; preds = %66
  call void @_ZN4absl12lts_2024072212log_internal15LogMessageFatalD1Ev(ptr noundef nonnull align 8 dereferenceable(16) %11) #27
  unreachable

99:                                               ; No predecessors!
  br label %100

100:                                              ; preds = %99, %66
  %101 = load i1, ptr %12, align 1
  br i1 %101, label %102, label %103

102:                                              ; preds = %100
  call void @llvm.lifetime.end.p0(i64 16, ptr %11) #3
  br label %103

103:                                              ; preds = %102, %100
  call void @llvm.lifetime.end.p0(i64 1, ptr %10) #3
  br label %124

104:                                              ; preds = %88
  %105 = landingpad { ptr, i32 }
          cleanup
  %106 = extractvalue { ptr, i32 } %105, 0
  store ptr %106, ptr %15, align 8
  %107 = extractvalue { ptr, i32 } %105, 1
  store i32 %107, ptr %16, align 4
  %108 = load i1, ptr %21, align 1
  br i1 %108, label %118, label %120

109:                                              ; No predecessors!
  br label %110

110:                                              ; preds = %109, %95
  %111 = load i1, ptr %19, align 1
  br i1 %111, label %112, label %113

112:                                              ; preds = %110
  call void @llvm.lifetime.end.p0(i64 16, ptr %18) #3
  br label %113

113:                                              ; preds = %112, %110
  call void @llvm.lifetime.end.p0(i64 1, ptr %17) #3
  %114 = load ptr, ptr %9, align 8, !tbaa !24
  store i8 0, ptr %114, align 1, !tbaa !61
  %115 = load ptr, ptr %3, align 8, !tbaa !24
  call void @gpr_free(ptr noundef %115)
  %116 = load ptr, ptr %4, align 8, !tbaa !24
  call void @gpr_free(ptr noundef %116)
  %117 = load ptr, ptr %8, align 8, !tbaa !24
  call void @llvm.lifetime.end.p0(i64 8, ptr %9) #3
  call void @llvm.lifetime.end.p0(i64 8, ptr %8) #3
  call void @llvm.lifetime.end.p0(i64 8, ptr %7) #3
  call void @llvm.lifetime.end.p0(i64 8, ptr %6) #3
  call void @llvm.lifetime.end.p0(i64 8, ptr %5) #3
  ret ptr %117

118:                                              ; preds = %104
  call void @_ZN4absl12lts_2024072212log_internal15LogMessageFatalD1Ev(ptr noundef nonnull align 8 dereferenceable(16) %18) #27
  unreachable

119:                                              ; No predecessors!
  br label %120

120:                                              ; preds = %119, %104
  %121 = load i1, ptr %19, align 1
  br i1 %121, label %122, label %123

122:                                              ; preds = %120
  call void @llvm.lifetime.end.p0(i64 16, ptr %18) #3
  br label %123

123:                                              ; preds = %122, %120
  call void @llvm.lifetime.end.p0(i64 1, ptr %17) #3
  br label %124

124:                                              ; preds = %123, %103
  call void @llvm.lifetime.end.p0(i64 8, ptr %9) #3
  call void @llvm.lifetime.end.p0(i64 8, ptr %8) #3
  call void @llvm.lifetime.end.p0(i64 8, ptr %7) #3
  call void @llvm.lifetime.end.p0(i64 8, ptr %6) #3
  call void @llvm.lifetime.end.p0(i64 8, ptr %5) #3
  br label %125

125:                                              ; preds = %124
  %126 = load ptr, ptr %15, align 8
  %127 = load i32, ptr %16, align 4
  %128 = insertvalue { ptr, i32 } poison, ptr %126, 0
  %129 = insertvalue { ptr, i32 } %128, i32 %127, 1
  resume { ptr, i32 } %129
}